target datalayout = "e-m:e-p270:32:32-p271:32:32-p272:64:64-i64:64-i128:128-f80:128-n8:16:32:64-S128"
target triple = "x86_64-pc-linux-gnu"

%struct.H5CX_node_t = type { %struct.H5CX_t, ptr }
%struct.H5CX_t = type { i64, ptr, i64, ptr, i64, ptr, i64, ptr, i64, ptr, i64, ptr, i64, i32, i64, i8, ptr, i8, ptr, i8, i32, i8, [3 x double], i8, i64, i8, i32, i8, %struct.H5Z_cb_t, i8, ptr, i8, %struct.H5T_vlen_alloc_info_t, i8, %struct.H5T_conv_cb_t, i8, i32, i8, i8, i8, i32, i8, i8, i32, i8, i8, i32, i8, i32, i8, i64, i8, i8, i8, i8, i8, ptr, i8, ptr, i8, i32, i8, i32, i8, %struct.H5VL_connector_prop_t, i8, ptr, i8 }
%struct.H5Z_cb_t = type { ptr, ptr }
%struct.H5T_vlen_alloc_info_t = type { ptr, ptr, ptr, ptr }
%struct.H5T_conv_cb_t = type { ptr, ptr }
%struct.H5VL_connector_prop_t = type { ptr, ptr }

@H5_libinit_g = external global i8, align 1
@H5_libterm_g = external global i8, align 1
@.str = private unnamed_addr constant [98 x i8] c"generated/home/dtcxzyw/WorkSpace/Projects/compilers/llvm-opt-benchmark/bench/hdf5/hdf5/src/H5VL.c\00", align 1
@H5E_FUNC_g = external global i64, align 8
@H5E_CANTINIT_g = external global i64, align 8
@.str.1 = private unnamed_addr constant [30 x i8] c"library initialization failed\00", align 1
@H5VL_init_g = external global i8, align 1
@.str.2 = private unnamed_addr constant [32 x i8] c"interface initialization failed\00", align 1
@H5E_CANTSET_g = external global i64, align 8
@.str.3 = private unnamed_addr constant [22 x i8] c"can't set API context\00", align 1
@H5E_ARGS_g = external global i64, align 8
@H5E_VOL_g = external global i64, align 8
@H5E_BADVALUE_g = external global i64, align 8
@.str.49 = private unnamed_addr constant [24 x i8] c"invalid op_name pointer\00", align 1
@.str.50 = private unnamed_addr constant [23 x i8] c"invalid op_name string\00", align 1
@.str.51 = private unnamed_addr constant [26 x i8] c"invalid VOL subclass type\00", align 1
@__func__.H5VLunregister_opt_operation = private unnamed_addr constant [29 x i8] c"H5VLunregister_opt_operation\00", align 1
@H5E_CANTREMOVE_g = external global i64, align 8
@.str.54 = private unnamed_addr constant [50 x i8] c"can't unregister dynamic optional operation: '%s'\00", align 1

; Function Attrs: nounwind uwtable
define i32 @H5VLunregister_opt_operation(i32 noundef %0, ptr noundef %1) #0 {
  %3 = alloca i32, align 4
  %4 = alloca ptr, align 8
  %5 = alloca i32, align 4
  %6 = alloca %struct.H5CX_node_t, align 8
  %7 = alloca i8, align 1
  %8 = alloca i8, align 1
  store i32 %0, ptr %3, align 4, !tbaa !18
  store ptr %1, ptr %4, align 8, !tbaa !16
  call void @llvm.lifetime.start.p0(i64 4, ptr %5) #6
  store i32 0, ptr %5, align 4, !tbaa !18
  call void @llvm.lifetime.start.p0(i64 480, ptr %6) #6
  call void @llvm.memset.p0.i64(ptr align 8 %6, i8 0, i64 480, i1 false)
  call void @llvm.lifetime.start.p0(i64 1, ptr %7) #6
  store i8 0, ptr %7, align 1, !tbaa !12
  call void @llvm.lifetime.start.p0(i64 1, ptr %8) #6
  store i8 0, ptr %8, align 1, !tbaa !12
  br label %9

9:                                                ; preds = %2
  %10 = load i8, ptr @H5_libinit_g, align 1, !tbaa !12, !range !14, !noundef !15
  %11 = trunc i8 %10 to i1
  br i1 %11, label %16, label %12

12:                                               ; preds = %9
  %13 = load i8, ptr @H5_libterm_g, align 1, !tbaa !12, !range !14, !noundef !15
  %14 = trunc i8 %13 to i1
  %15 = xor i1 %14, true
  br label %16

16:                                               ; preds = %12, %9
  %17 = phi i1 [ false, %9 ], [ %15, %12 ]
  %18 = xor i1 %17, true
  %19 = xor i1 %18, true
  %20 = zext i1 %19 to i32
  %21 = sext i32 %20 to i64
  %22 = call i64 @llvm.expect.i64(i64 %21, i64 0)
  %23 = icmp ne i64 %22, 0
  br i1 %23, label %24, label %53

24:                                               ; preds = %16
  %25 = call i32 @H5_init_library()
  %26 = icmp slt i32 %25, 0
  %27 = xor i1 %26, true
  %28 = xor i1 %27, true
  %29 = zext i1 %28 to i32
  %30 = sext i32 %29 to i64
  %31 = call i64 @llvm.expect.i64(i64 %30, i64 0)
  %32 = icmp ne i64 %31, 0
  br i1 %32, label %33, label %52

33:                                               ; preds = %24
  br label %34

34:                                               ; preds = %33
  br label %35

35:                                               ; preds = %34
  br label %36

36:                                               ; preds = %35
  %37 = load i64, ptr @H5E_FUNC_g, align 8, !tbaa !8
  %38 = load i64, ptr @H5E_CANTINIT_g, align 8, !tbaa !8
  %39 = call i32 (ptr, ptr, i32, i64, i64, ptr, ...) @H5E_printf_stack(ptr noundef @.str, ptr noundef @__func__.H5VLunregister_opt_operation, i32 noundef 1022, i64 noundef %37, i64 noundef %38, ptr noundef @.str.1)
  br label %40

40:                                               ; preds = %36
  br label %41

41:                                               ; preds = %40
  store i8 1, ptr %8, align 1, !tbaa !12
  %42 = load i8, ptr %8, align 1, !tbaa !12, !range !14, !noundef !15
  %43 = trunc i8 %42 to i1
  %44 = zext i1 %43 to i8
  store i8 %44, ptr %8, align 1, !tbaa !12
  br label %45

45:                                               ; preds = %41
  br label %46

46:                                               ; preds = %45
  br label %47

47:                                               ; preds = %46
  store i32 -1, ptr %5, align 4, !tbaa !18
  br label %241

48:                                               ; No predecessors!
  br label %49

49:                                               ; preds = %48
  br label %50

50:                                               ; preds = %49
  br label %51

51:                                               ; preds = %50
  br label %52

52:                                               ; preds = %51, %24
  br label %53

53:                                               ; preds = %52, %16
  %54 = load i8, ptr @H5VL_init_g, align 1, !tbaa !12, !range !14, !noundef !15
  %55 = trunc i8 %54 to i1
  br i1 %55, label %60, label %56

56:                                               ; preds = %53
  %57 = load i8, ptr @H5_libterm_g, align 1, !tbaa !12, !range !14, !noundef !15
  %58 = trunc i8 %57 to i1
  %59 = xor i1 %58, true
  br label %60

60:                                               ; preds = %56, %53
  %61 = phi i1 [ false, %53 ], [ %59, %56 ]
  %62 = xor i1 %61, true
  %63 = xor i1 %62, true
  %64 = zext i1 %63 to i32
  %65 = sext i32 %64 to i64
  %66 = call i64 @llvm.expect.i64(i64 %65, i64 0)
  %67 = icmp ne i64 %66, 0
  br i1 %67, label %68, label %91

68:                                               ; preds = %60
  store i8 1, ptr @H5VL_init_g, align 1, !tbaa !12
  %69 = call i32 @H5VL__init_package()
  %70 = icmp slt i32 %69, 0
  br i1 %70, label %71, label %90

71:                                               ; preds = %68
  store i8 0, ptr @H5VL_init_g, align 1, !tbaa !12
  br label %72

72:                                               ; preds = %71
  br label %73

73:                                               ; preds = %72
  br label %74

74:                                               ; preds = %73
  %75 = load i64, ptr @H5E_FUNC_g, align 8, !tbaa !8
  %76 = load i64, ptr @H5E_CANTINIT_g, align 8, !tbaa !8
  %77 = call i32 (ptr, ptr, i32, i64, i64, ptr, ...) @H5E_printf_stack(ptr noundef @.str, ptr noundef @__func__.H5VLunregister_opt_operation, i32 noundef 1022, i64 noundef %75, i64 noundef %76, ptr noundef @.str.2)
  br label %78

78:                                               ; preds = %74
  br label %79

79:                                               ; preds = %78
  store i8 1, ptr %8, align 1, !tbaa !12
  %80 = load i8, ptr %8, align 1, !tbaa !12, !range !14, !noundef !15
  %81 = trunc i8 %80 to i1
  %82 = zext i1 %81 to i8
  store i8 %82, ptr %8, align 1, !tbaa !12
  br label %83

83:                                               ; preds = %79
  br label %84

84:                                               ; preds = %83
  br label %85

85:                                               ; preds = %84
  store i32 -1, ptr %5, align 4, !tbaa !18
  br label %241

86:                                               ; No predecessors!
  br label %87

87:                                               ; preds = %86
  br label %88

88:                                               ; preds = %87
  br label %89

89:                                               ; preds = %88
  br label %90

90:                                               ; preds = %89, %68
  br label %91

91:                                               ; preds = %90, %60
  br label %92

92:                                               ; preds = %91
  br label %93

93:                                               ; preds = %92
  br label %94

94:                                               ; preds = %93
  %95 = call i32 @H5CX_push(ptr noundef %6)
  %96 = icmp slt i32 %95, 0
  %97 = xor i1 %96, true
  %98 = xor i1 %97, true
  %99 = zext i1 %98 to i32
  %100 = sext i32 %99 to i64
  %101 = call i64 @llvm.expect.i64(i64 %100, i64 0)
  %102 = icmp ne i64 %101, 0
  br i1 %102, label %103, label %122

103:                                              ; preds = %94
  br label %104

104:                                              ; preds = %103
  br label %105

105:                                              ; preds = %104
  br label %106

106:                                              ; preds = %105
  %107 = load i64, ptr @H5E_FUNC_g, align 8, !tbaa !8
  %108 = load i64, ptr @H5E_CANTSET_g, align 8, !tbaa !8
  %109 = call i32 (ptr, ptr, i32, i64, i64, ptr, ...) @H5E_printf_stack(ptr noundef @.str, ptr noundef @__func__.H5VLunregister_opt_operation, i32 noundef 1022, i64 noundef %107, i64 noundef %108, ptr noundef @.str.3)
  br label %110

110:                                              ; preds = %106
  br label %111

111:                                              ; preds = %110
  store i8 1, ptr %8, align 1, !tbaa !12
  %112 = load i8, ptr %8, align 1, !tbaa !12, !range !14, !noundef !15
  %113 = trunc i8 %112 to i1
  %114 = zext i1 %113 to i8
  store i8 %114, ptr %8, align 1, !tbaa !12
  br label %115

115:                                              ; preds = %111
  br label %116

116:                                              ; preds = %115
  br label %117

117:                                              ; preds = %116
  store i32 -1, ptr %5, align 4, !tbaa !18
  br label %241

118:                                              ; No predecessors!
  br label %119

119:                                              ; preds = %118
  br label %120

120:                                              ; preds = %119
  br label %121

121:                                              ; preds = %120
  br label %123

122:                                              ; preds = %94
  store i8 1, ptr %7, align 1, !tbaa !12
  br label %123

123:                                              ; preds = %122, %121
  br label %124

124:                                              ; preds = %123
  br label %125

125:                                              ; preds = %124
  %126 = call i32 @H5E_clear_stack()
  %127 = load ptr, ptr %4, align 8, !tbaa !16
  %128 = icmp eq ptr null, %127
  br i1 %128, label %129, label %148

129:                                              ; preds = %125
  br label %130

130:                                              ; preds = %129
  br label %131

131:                                              ; preds = %130
  br label %132

132:                                              ; preds = %131
  %133 = load i64, ptr @H5E_ARGS_g, align 8, !tbaa !8
  %134 = load i64, ptr @H5E_BADVALUE_g, align 8, !tbaa !8
  %135 = call i32 (ptr, ptr, i32, i64, i64, ptr, ...) @H5E_printf_stack(ptr noundef @.str, ptr noundef @__func__.H5VLunregister_opt_operation, i32 noundef 1026, i64 noundef %133, i64 noundef %134, ptr noundef @.str.49)
  br label %136

136:                                              ; preds = %132
  br label %137

137:                                              ; preds = %136
  store i8 1, ptr %8, align 1, !tbaa !12
  %138 = load i8, ptr %8, align 1, !tbaa !12, !range !14, !noundef !15
  %139 = trunc i8 %138 to i1
  %140 = zext i1 %139 to i8
  store i8 %140, ptr %8, align 1, !tbaa !12
  br label %141

141:                                              ; preds = %137
  br label %142

142:                                              ; preds = %141
  br label %143

143:                                              ; preds = %142
  store i32 -1, ptr %5, align 4, !tbaa !18
  br label %241

144:                                              ; No predecessors!
  br label %145

145:                                              ; preds = %144
  br label %146

146:                                              ; preds = %145
  br label %147

147:                                              ; preds = %146
  br label %148

148:                                              ; preds = %147, %125
  %149 = load ptr, ptr %4, align 8, !tbaa !16
  %150 = load i8, ptr %149, align 1, !tbaa !35
  %151 = sext i8 %150 to i32
  %152 = icmp eq i32 0, %151
  br i1 %152, label %153, label %172

153:                                              ; preds = %148
  br label %154

154:                                              ; preds = %153
  br label %155

155:                                              ; preds = %154
  br label %156

156:                                              ; preds = %155
  %157 = load i64, ptr @H5E_ARGS_g, align 8, !tbaa !8
  %158 = load i64, ptr @H5E_BADVALUE_g, align 8, !tbaa !8
  %159 = call i32 (ptr, ptr, i32, i64, i64, ptr, ...) @H5E_printf_stack(ptr noundef @.str, ptr noundef @__func__.H5VLunregister_opt_operation, i32 noundef 1028, i64 noundef %157, i64 noundef %158, ptr noundef @.str.50)
  br label %160

160:                                              ; preds = %156
  br label %161

161:                                              ; preds = %160
  store i8 1, ptr %8, align 1, !tbaa !12
  %162 = load i8, ptr %8, align 1, !tbaa !12, !range !14, !noundef !15
  %163 = trunc i8 %162 to i1
  %164 = zext i1 %163 to i8
  store i8 %164, ptr %8, align 1, !tbaa !12
  br label %165

165:                                              ; preds = %161
  br label %166

166:                                              ; preds = %165
  br label %167

167:                                              ; preds = %166
  store i32 -1, ptr %5, align 4, !tbaa !18
  br label %241

168:                                              ; No predecessors!
  br label %169

169:                                              ; preds = %168
  br label %170

170:                                              ; preds = %169
  br label %171

171:                                              ; preds = %170
  br label %172

172:                                              ; preds = %171, %148
  %173 = load i32, ptr %3, align 4, !tbaa !18
  %174 = icmp eq i32 3, %173
  br i1 %174, label %215, label %175

175:                                              ; preds = %172
  %176 = load i32, ptr %3, align 4, !tbaa !18
  %177 = icmp eq i32 4, %176
  br i1 %177, label %215, label %178

178:                                              ; preds = %175
  %179 = load i32, ptr %3, align 4, !tbaa !18
  %180 = icmp eq i32 5, %179
  br i1 %180, label %215, label %181

181:                                              ; preds = %178
  %182 = load i32, ptr %3, align 4, !tbaa !18
  %183 = icmp eq i32 6, %182
  br i1 %183, label %215, label %184

184:                                              ; preds = %181
  %185 = load i32, ptr %3, align 4, !tbaa !18
  %186 = icmp eq i32 7, %185
  br i1 %186, label %215, label %187

187:                                              ; preds = %184
  %188 = load i32, ptr %3, align 4, !tbaa !18
  %189 = icmp eq i32 9, %188
  br i1 %189, label %215, label %190

190:                                              ; preds = %187
  %191 = load i32, ptr %3, align 4, !tbaa !18
  %192 = icmp eq i32 8, %191
  br i1 %192, label %215, label %193

193:                                              ; preds = %190
  %194 = load i32, ptr %3, align 4, !tbaa !18
  %195 = icmp eq i32 10, %194
  br i1 %195, label %215, label %196

196:                                              ; preds = %193
  br label %197

197:                                              ; preds = %196
  br label %198

198:                                              ; preds = %197
  br label %199

199:                                              ; preds = %198
  %200 = load i64, ptr @H5E_ARGS_g, align 8, !tbaa !8
  %201 = load i64, ptr @H5E_BADVALUE_g, align 8, !tbaa !8
  %202 = call i32 (ptr, ptr, i32, i64, i64, ptr, ...) @H5E_printf_stack(ptr noundef @.str, ptr noundef @__func__.H5VLunregister_opt_operation, i32 noundef 1032, i64 noundef %200, i64 noundef %201, ptr noundef @.str.51)
  br label %203

203:                                              ; preds = %199
  br label %204

204:                                              ; preds = %203
  store i8 1, ptr %8, align 1, !tbaa !12
  %205 = load i8, ptr %8, align 1, !tbaa !12, !range !14, !noundef !15
  %206 = trunc i8 %205 to i1
  %207 = zext i1 %206 to i8
  store i8 %207, ptr %8, align 1, !tbaa !12
  br label %208

208:                                              ; preds = %204
  br label %209

209:                                              ; preds = %208
  br label %210

210:                                              ; preds = %209
  store i32 -1, ptr %5, align 4, !tbaa !18
  br label %241

211:                                              ; No predecessors!
  br label %212

212:                                              ; preds = %211
  br label %213

213:                                              ; preds = %212
  br label %214

214:                                              ; preds = %213
  br label %215

215:                                              ; preds = %214, %193, %190, %187, %184, %181, %178, %175, %172
  %216 = load i32, ptr %3, align 4, !tbaa !18
  %217 = load ptr, ptr %4, align 8, !tbaa !16
  %218 = call i32 @H5VL__unregister_opt_operation(i32 noundef %216, ptr noundef %217)
  %219 = icmp slt i32 %218, 0
  br i1 %219, label %220, label %240

220:                                              ; preds = %215
  br label %221

221:                                              ; preds = %220
  br label %222

222:                                              ; preds = %221
  br label %223

223:                                              ; preds = %222
  %224 = load i64, ptr @H5E_VOL_g, align 8, !tbaa !8
  %225 = load i64, ptr @H5E_CANTREMOVE_g, align 8, !tbaa !8
  %226 = load ptr, ptr %4, align 8, !tbaa !16
  %227 = call i32 (ptr, ptr, i32, i64, i64, ptr, ...) @H5E_printf_stack(ptr noundef @.str, ptr noundef @__func__.H5VLunregister_opt_operation, i32 noundef 1037, i64 noundef %224, i64 noundef %225, ptr noundef @.str.54, ptr noundef %226)
  br label %228

228:                                              ; preds = %223
  br label %229

229:                                              ; preds = %228
  store i8 1, ptr %8, align 1, !tbaa !12
  %230 = load i8, ptr %8, align 1, !tbaa !12, !range !14, !noundef !15
  %231 = trunc i8 %230 to i1
  %232 = zext i1 %231 to i8
  store i8 %232, ptr %8, align 1, !tbaa !12
  br label %233

233:                                              ; preds = %229
  br label %234

234:                                              ; preds = %233
  br label %235

235:                                              ; preds = %234
  store i32 -1, ptr %5, align 4, !tbaa !18
  br label %241

236:                                              ; No predecessors!
  br label %237

237:                                              ; preds = %236
  br label %238

238:                                              ; preds = %237
  br label %239

239:                                              ; preds = %238
  br label %240

240:                                              ; preds = %239, %215
  br label %241

241:                                              ; preds = %240, %235, %210, %167, %143, %117, %85, %47
  %242 = load i8, ptr %7, align 1, !tbaa !12, !range !14, !noundef !15
  %243 = trunc i8 %242 to i1
  %244 = xor i1 %243, true
  %245 = xor i1 %244, true
  %246 = zext i1 %245 to i32
  %247 = sext i32 %246 to i64
  %248 = call i64 @llvm.expect.i64(i64 %247, i64 1)
  %249 = icmp ne i64 %248, 0
  br i1 %249, label %250, label %252

250:                                              ; preds = %241
  %251 = call i32 @H5CX_pop(i1 noundef zeroext true)
  store i8 0, ptr %7, align 1, !tbaa !12
  br label %252

252:                                              ; preds = %250, %241
  %253 = load i8, ptr %8, align 1, !tbaa !12, !range !14, !noundef !15
  %254 = trunc i8 %253 to i1
  %255 = xor i1 %254, true
  %256 = xor i1 %255, true
  %257 = zext i1 %256 to i32
  %258 = sext i32 %257 to i64
  %259 = call i64 @llvm.expect.i64(i64 %258, i64 0)
  %260 = icmp ne i64 %259, 0
  br i1 %260, label %261, label %263

261:                                              ; preds = %252
  %262 = call i32 @H5E_dump_api_stack()
  br label %263

263:                                              ; preds = %261, %252
  %264 = load i32, ptr %5, align 4, !tbaa !18
  call void @llvm.lifetime.end.p0(i64 1, ptr %8) #6
  call void @llvm.lifetime.end.p0(i64 1, ptr %7) #6
  call void @llvm.lifetime.end.p0(i64 480, ptr %6) #6
  call void @llvm.lifetime.end.p0(i64 4, ptr %5) #6
  ret i32 %264
}