; Function Attrs: nounwind uwtable
define range(i32 -1, 1) i32 @H5VLunregister_opt_operation(i32 noundef %0, ptr noundef %1) local_unnamed_addr #0 {
  %3 = alloca %struct.H5CX_node_t, align 8
  call void @llvm.lifetime.start.p0(i64 480, ptr nonnull %3) #4
  call void @llvm.memset.p0.i64(ptr noundef nonnull align 8 dereferenceable(480) %3, i8 0, i64 480, i1 false)
  %4 = load i8, ptr @H5_libinit_g, align 1, !tbaa !3, !range !7, !noundef !8
  %5 = trunc nuw i8 %4 to i1
  %6 = load i8, ptr @H5_libterm_g, align 1, !range !7
  %7 = trunc nuw i8 %6 to i1
  %8 = select i1 %5, i1 true, i1 %7
  br i1 %8, label %16, label %9, !prof !9

9:                                                ; preds = %2
  %10 = tail call i32 @H5_init_library() #4
  %11 = icmp slt i32 %10, 0
  br i1 %11, label %12, label %._crit_edge, !prof !10

._crit_edge:                                      ; preds = %9
  %.pre = load i8, ptr @H5_libterm_g, align 1, !range !7
  br label %16

12:                                               ; preds = %9
  %13 = load i64, ptr @H5E_FUNC_g, align 8, !tbaa !11
  %14 = load i64, ptr @H5E_CANTINIT_g, align 8, !tbaa !11
  %15 = tail call i32 (ptr, ptr, i32, i64, i64, ptr, ...) @H5E_printf_stack(ptr noundef nonnull @.str, ptr noundef nonnull @__func__.H5VLunregister_opt_operation, i32 noundef 1022, i64 noundef %13, i64 noundef %14, ptr noundef nonnull @.str.1) #4
  br label %.thread46

16:                                               ; preds = %._crit_edge, %2
  %17 = phi i8 [ %.pre, %._crit_edge ], [ %6, %2 ]
  %18 = load i8, ptr @H5VL_init_g, align 1, !tbaa !3, !range !7, !noundef !8
  %19 = trunc nuw i8 %18 to i1
  %20 = trunc nuw i8 %17 to i1
  %21 = select i1 %19, i1 true, i1 %20
  br i1 %21, label %29, label %22, !prof !9

22:                                               ; preds = %16
  store i8 1, ptr @H5VL_init_g, align 1, !tbaa !3
  %23 = tail call i32 @H5VL__init_package() #4
  %24 = icmp slt i32 %23, 0
  br i1 %24, label %25, label %29, !prof !16

25:                                               ; preds = %22
  store i8 0, ptr @H5VL_init_g, align 1, !tbaa !3
  %26 = load i64, ptr @H5E_FUNC_g, align 8, !tbaa !11
  %27 = load i64, ptr @H5E_CANTINIT_g, align 8, !tbaa !11
  %28 = tail call i32 (ptr, ptr, i32, i64, i64, ptr, ...) @H5E_printf_stack(ptr noundef nonnull @.str, ptr noundef nonnull @__func__.H5VLunregister_opt_operation, i32 noundef 1022, i64 noundef %26, i64 noundef %27, ptr noundef nonnull @.str.2) #4
  br label %.thread46

29:                                               ; preds = %16, %22
  %30 = call i32 @H5CX_push(ptr noundef nonnull %3) #4
  %31 = icmp slt i32 %30, 0
  br i1 %31, label %32, label %36, !prof !10

32:                                               ; preds = %29
  %33 = load i64, ptr @H5E_FUNC_g, align 8, !tbaa !11
  %34 = load i64, ptr @H5E_CANTSET_g, align 8, !tbaa !11
  %35 = call i32 (ptr, ptr, i32, i64, i64, ptr, ...) @H5E_printf_stack(ptr noundef nonnull @.str, ptr noundef nonnull @__func__.H5VLunregister_opt_operation, i32 noundef 1022, i64 noundef %33, i64 noundef %34, ptr noundef nonnull @.str.3) #4
  br label %.thread46

36:                                               ; preds = %29
  %37 = call i32 @H5E_clear_stack() #4
  %38 = icmp eq ptr %1, null
  br i1 %38, label %39, label %43, !prof !17

39:                                               ; preds = %36
  %40 = load i64, ptr @H5E_ARGS_g, align 8, !tbaa !11
  %41 = load i64, ptr @H5E_BADVALUE_g, align 8, !tbaa !11
  %42 = call i32 (ptr, ptr, i32, i64, i64, ptr, ...) @H5E_printf_stack(ptr noundef nonnull @.str, ptr noundef nonnull @__func__.H5VLunregister_opt_operation, i32 noundef 1026, i64 noundef %40, i64 noundef %41, ptr noundef nonnull @.str.49) #4
  br label %.thread52

43:                                               ; preds = %36
  %44 = load i8, ptr %1, align 1, !tbaa !30
  %45 = icmp eq i8 %44, 0
  br i1 %45, label %46, label %50, !prof !17

46:                                               ; preds = %43
  %47 = load i64, ptr @H5E_ARGS_g, align 8, !tbaa !11
  %48 = load i64, ptr @H5E_BADVALUE_g, align 8, !tbaa !11
  %49 = call i32 (ptr, ptr, i32, i64, i64, ptr, ...) @H5E_printf_stack(ptr noundef nonnull @.str, ptr noundef nonnull @__func__.H5VLunregister_opt_operation, i32 noundef 1028, i64 noundef %47, i64 noundef %48, ptr noundef nonnull @.str.50) #4
  br label %.thread52

50:                                               ; preds = %43
  %51 = add i32 %0, -3
  %or.cond13 = icmp ult i32 %51, 8
  br i1 %or.cond13, label %56, label %52, !prof !31

52:                                               ; preds = %50
  %53 = load i64, ptr @H5E_ARGS_g, align 8, !tbaa !11
  %54 = load i64, ptr @H5E_BADVALUE_g, align 8, !tbaa !11
  %55 = call i32 (ptr, ptr, i32, i64, i64, ptr, ...) @H5E_printf_stack(ptr noundef nonnull @.str, ptr noundef nonnull @__func__.H5VLunregister_opt_operation, i32 noundef 1032, i64 noundef %53, i64 noundef %54, ptr noundef nonnull @.str.51) #4
  br label %.thread52

56:                                               ; preds = %50
  %57 = call i32 @H5VL__unregister_opt_operation(i32 noundef %0, ptr noundef nonnull %1) #4
  %58 = icmp slt i32 %57, 0
  br i1 %58, label %59, label %64, !prof !17

59:                                               ; preds = %56
  %60 = load i64, ptr @H5E_VOL_g, align 8, !tbaa !11
  %61 = load i64, ptr @H5E_CANTREMOVE_g, align 8, !tbaa !11
  %62 = call i32 (ptr, ptr, i32, i64, i64, ptr, ...) @H5E_printf_stack(ptr noundef nonnull @.str, ptr noundef nonnull @__func__.H5VLunregister_opt_operation, i32 noundef 1037, i64 noundef %60, i64 noundef %61, ptr noundef nonnull @.str.54, ptr noundef nonnull %1) #4
  br label %.thread52

.thread52:                                        ; preds = %52, %59, %46, %39
  %63 = call i32 @H5CX_pop(i1 noundef zeroext true) #4
  br label %.thread46

64:                                               ; preds = %56
  %65 = call i32 @H5CX_pop(i1 noundef zeroext true) #4
  br label %67

.thread46:                                        ; preds = %32, %25, %12, %.thread52
  %66 = call i32 @H5E_dump_api_stack() #4
  br label %67

67:                                               ; preds = %64, %.thread46
  %.0364149 = phi i32 [ -1, %.thread46 ], [ 0, %64 ]
  call void @llvm.lifetime.end.p0(i64 480, ptr nonnull %3) #4
  ret i32 %.0364149
}